target datalayout = "e-m:e-p270:32:32-p271:32:32-p272:64:64-i64:64-i128:128-f80:128-n8:16:32:64-S128"
target triple = "x86_64-pc-linux-gnu"

; Function Attrs: nounwind uwtable
define internal i32 @iq2_compare_func(ptr noundef %0, ptr noundef %1) #0 {
  %3 = alloca ptr, align 8
  %4 = alloca ptr, align 8
  %5 = alloca ptr, align 8
  %6 = alloca ptr, align 8
  store ptr %0, ptr %3, align 8, !tbaa !8
  store ptr %1, ptr %4, align 8, !tbaa !8
  call void @llvm.lifetime.start.p0(i64 8, ptr %5) #10
  %7 = load ptr, ptr %3, align 8, !tbaa !8
  store ptr %7, ptr %5, align 8, !tbaa !320
  call void @llvm.lifetime.start.p0(i64 8, ptr %6) #10
  %8 = load ptr, ptr %4, align 8, !tbaa !8
  store ptr %8, ptr %6, align 8, !tbaa !320
  %9 = load ptr, ptr %5, align 8, !tbaa !320
  %10 = getelementptr inbounds i32, ptr %9, i64 0
  %11 = load i32, ptr %10, align 4, !tbaa !11
  %12 = load ptr, ptr %6, align 8, !tbaa !320
  %13 = getelementptr inbounds i32, ptr %12, i64 0
  %14 = load i32, ptr %13, align 4, !tbaa !11
  %15 = icmp slt i32 %11, %14
  br i1 %15, label %16, label %17

16:                                               ; preds = %2
  br label %48

17:                                               ; preds = %2
  %18 = load ptr, ptr %5, align 8, !tbaa !320
  %19 = getelementptr inbounds i32, ptr %18, i64 0
  %20 = load i32, ptr %19, align 4, !tbaa !11
  %21 = load ptr, ptr %6, align 8, !tbaa !320
  %22 = getelementptr inbounds i32, ptr %21, i64 0
  %23 = load i32, ptr %22, align 4, !tbaa !11
  %24 = icmp sgt i32 %20, %23
  br i1 %24, label %25, label %26

25:                                               ; preds = %17
  br label %46

26:                                               ; preds = %17
  %27 = load ptr, ptr %5, align 8, !tbaa !320
  %28 = getelementptr inbounds i32, ptr %27, i64 1
  %29 = load i32, ptr %28, align 4, !tbaa !11
  %30 = load ptr, ptr %6, align 8, !tbaa !320
  %31 = getelementptr inbounds i32, ptr %30, i64 1
  %32 = load i32, ptr %31, align 4, !tbaa !11
  %33 = icmp slt i32 %29, %32
  br i1 %33, label %34, label %35

34:                                               ; preds = %26
  br label %44

35:                                               ; preds = %26
  %36 = load ptr, ptr %5, align 8, !tbaa !320
  %37 = getelementptr inbounds i32, ptr %36, i64 1
  %38 = load i32, ptr %37, align 4, !tbaa !11
  %39 = load ptr, ptr %6, align 8, !tbaa !320
  %40 = getelementptr inbounds i32, ptr %39, i64 1
  %41 = load i32, ptr %40, align 4, !tbaa !11
  %42 = icmp sgt i32 %38, %41
  %43 = select i1 %42, i32 1, i32 0
  br label %44

44:                                               ; preds = %35, %34
  %45 = phi i32 [ -1, %34 ], [ %43, %35 ]
  br label %46

46:                                               ; preds = %44, %25
  %47 = phi i32 [ 1, %25 ], [ %45, %44 ]
  br label %48

48:                                               ; preds = %46, %16
  %49 = phi i32 [ -1, %16 ], [ %47, %46 ]
  call void @llvm.lifetime.end.p0(i64 8, ptr %6) #10
  call void @llvm.lifetime.end.p0(i64 8, ptr %5) #10
  ret i32 %49
}